#include <math.h>
#include <stdio.h>
#include <stdlib.h>
#include <string.h>

main()
{
 int x1,y1,x2,y2;
 int i,j,k;
 int a[100][100]={0},b[100][100]={0},c[100][100]={0};//for(i=0;i<10;i++)for(j=0;j<10;j++)printf("%d",c[i][j]);
 scanf("%d%d",&x1,&y1);
 for(i=0;i<x1;i++)
 for(j=0;j<y1;j++)
 scanf("%d",&a[i][j]);
 scanf("%d%d",&x2,&y2);
 for(i=0;i<x2;i++)
 for(j=0;j<y2;j++)
 scanf("%d",&b[i][j]);
 for(i=0;i<x1;i++)
 for(j=0;j<y2;j++)
 {
  for(k=0;k<y1;k++)
  c[i][j]+=a[i][k]*b[k][j];//printf("%d",c[i][j]);}
 }
 for(i=0;i<x1;i++)
 for(j=0;j<y2;j++)
 {
  if(j==(y2-1)) {if(i!=(x1-1))printf("%d\n",c[i][j]);else printf("%d",c[i][j]);}
  else {printf("%d ",c[i][j]);}
 }
 
 }